target datalayout = "e-m:e-p270:32:32-p271:32:32-p272:64:64-i64:64-i128:128-f80:128-n8:16:32:64-S128"
target triple = "x86_64-pc-linux-gnu"

%struct.ParallelApplyWorkerEntry = type { i32, ptr }

@ParallelApplyTxnHash = internal global ptr null, align 8
@stream_apply_worker = internal global ptr null, align 8

; Function Attrs: nounwind uwtable
define dso_local ptr @pa_find_worker(i32 noundef %0) #0 {
  %2 = alloca ptr, align 8
  %3 = alloca i32, align 4
  %4 = alloca i8, align 1
  %5 = alloca ptr, align 8
  %6 = alloca i32, align 4
  store i32 %0, ptr %3, align 4
  call void @llvm.lifetime.start.p0(i64 1, ptr %4) #9
  call void @llvm.lifetime.start.p0(i64 8, ptr %5) #9
  %7 = load i32, ptr %3, align 4
  %8 = icmp ne i32 %7, 0
  br i1 %8, label %10, label %9

9:                                                ; preds = %1
  store ptr null, ptr %2, align 8
  store i32 1, ptr %6, align 4
  br label %29

10:                                               ; preds = %1
  %11 = load ptr, ptr @ParallelApplyTxnHash, align 8
  %12 = icmp ne ptr %11, null
  br i1 %12, label %14, label %13

13:                                               ; preds = %10
  store ptr null, ptr %2, align 8
  store i32 1, ptr %6, align 4
  br label %29

14:                                               ; preds = %10
  %15 = load ptr, ptr @stream_apply_worker, align 8
  %16 = icmp ne ptr %15, null
  br i1 %16, label %17, label %19

17:                                               ; preds = %14
  %18 = load ptr, ptr @stream_apply_worker, align 8
  store ptr %18, ptr %2, align 8
  store i32 1, ptr %6, align 4
  br label %29

19:                                               ; preds = %14
  %20 = load ptr, ptr @ParallelApplyTxnHash, align 8
  %21 = call ptr @hash_search(ptr noundef %20, ptr noundef %3, i32 noundef 0, ptr noundef %4)
  store ptr %21, ptr %5, align 8
  %22 = load i8, ptr %4, align 1, !range !6, !noundef !7
  %23 = trunc i8 %22 to i1
  br i1 %23, label %24, label %28

24:                                               ; preds = %19
  %25 = load ptr, ptr %5, align 8
  %26 = getelementptr inbounds nuw %struct.ParallelApplyWorkerEntry, ptr %25, i32 0, i32 1
  %27 = load ptr, ptr %26, align 8
  store ptr %27, ptr %2, align 8
  store i32 1, ptr %6, align 4
  br label %29

28:                                               ; preds = %19
  store ptr null, ptr %2, align 8
  store i32 1, ptr %6, align 4
  br label %29

29:                                               ; preds = %28, %24, %17, %13, %9
  call void @llvm.lifetime.end.p0(i64 8, ptr %5) #9
  call void @llvm.lifetime.end.p0(i64 1, ptr %4) #9
  %30 = load ptr, ptr %2, align 8
  ret ptr %30
}