; Function Attrs: nounwind uwtable
define dso_local ptr @pa_find_worker(i32 noundef %0) local_unnamed_addr #0 {
  %2 = alloca i32, align 4
  %3 = alloca i8, align 1
  store i32 %0, ptr %2, align 4
  call void @llvm.lifetime.start.p0(i64 1, ptr nonnull %3) #10
  %.not = icmp eq i32 %0, 0
  br i1 %.not, label %15, label %4

4:                                                ; preds = %1
  %5 = load ptr, ptr @ParallelApplyTxnHash, align 8
  %.not4 = icmp eq ptr %5, null
  br i1 %.not4, label %15, label %6

6:                                                ; preds = %4
  %7 = load ptr, ptr @stream_apply_worker, align 8
  %.not5 = icmp eq ptr %7, null
  br i1 %.not5, label %8, label %15

8:                                                ; preds = %6
  %9 = call ptr @hash_search(ptr noundef nonnull %5, ptr noundef nonnull %2, i32 noundef 0, ptr noundef nonnull %3) #10
  %10 = load i8, ptr %3, align 1, !range !4, !noundef !5
  %11 = trunc nuw i8 %10 to i1
  br i1 %11, label %12, label %15

12:                                               ; preds = %8
  %13 = getelementptr inbounds nuw i8, ptr %9, i64 8
  %14 = load ptr, ptr %13, align 8
  br label %15

15:                                               ; preds = %8, %6, %4, %1, %12
  %.0 = phi ptr [ %14, %12 ], [ null, %1 ], [ null, %4 ], [ %7, %6 ], [ null, %8 ]
  call void @llvm.lifetime.end.p0(i64 1, ptr nonnull %3) #10
  ret ptr %.0
}